
02-stampa.o:     file format elf64-x86-64


Disassembly of section .text:

0000000000000000 <stampa>:
   0:	f3 0f 1e fa          	endbr64 
   4:	55                   	push   %rbp
   5:	48 89 e5             	mov    %rsp,%rbp
   8:	48 83 ec 10          	sub    $0x10,%rsp
   c:	89 7d fc             	mov    %edi,-0x4(%rbp)
   f:	48 8d 35 00 00 00 00 	lea    0x0(%rip),%rsi        # 16 <stampa+0x16>
  16:	48 8d 3d 00 00 00 00 	lea    0x0(%rip),%rdi        # 1d <stampa+0x1d>
  1d:	e8 00 00 00 00       	callq  22 <stampa+0x22>
  22:	48 89 c2             	mov    %rax,%rdx
  25:	8b 45 fc             	mov    -0x4(%rbp),%eax
  28:	89 c6                	mov    %eax,%esi
  2a:	48 89 d7             	mov    %rdx,%rdi
  2d:	e8 00 00 00 00       	callq  32 <stampa+0x32>
  32:	48 89 c2             	mov    %rax,%rdx
  35:	48 8b 05 00 00 00 00 	mov    0x0(%rip),%rax        # 3c <stampa+0x3c>
  3c:	48 89 c6             	mov    %rax,%rsi
  3f:	48 89 d7             	mov    %rdx,%rdi
  42:	e8 00 00 00 00       	callq  47 <stampa+0x47>
  47:	90                   	nop
  48:	c9                   	leaveq 
  49:	c3                   	retq   

000000000000004a <_Z41__static_initialization_and_destruction_0ii>:
  4a:	f3 0f 1e fa          	endbr64 
  4e:	55                   	push   %rbp
  4f:	48 89 e5             	mov    %rsp,%rbp
  52:	48 83 ec 10          	sub    $0x10,%rsp
  56:	89 7d fc             	mov    %edi,-0x4(%rbp)
  59:	89 75 f8             	mov    %esi,-0x8(%rbp)
  5c:	83 7d fc 01          	cmpl   $0x1,-0x4(%rbp)
  60:	75 32                	jne    94 <_Z41__static_initialization_and_destruction_0ii+0x4a>
  62:	81 7d f8 ff ff 00 00 	cmpl   $0xffff,-0x8(%rbp)
  69:	75 29                	jne    94 <_Z41__static_initialization_and_destruction_0ii+0x4a>
  6b:	48 8d 3d 00 00 00 00 	lea    0x0(%rip),%rdi        # 72 <_Z41__static_initialization_and_destruction_0ii+0x28>
  72:	e8 00 00 00 00       	callq  77 <_Z41__static_initialization_and_destruction_0ii+0x2d>
  77:	48 8d 15 00 00 00 00 	lea    0x0(%rip),%rdx        # 7e <_Z41__static_initialization_and_destruction_0ii+0x34>
  7e:	48 8d 35 00 00 00 00 	lea    0x0(%rip),%rsi        # 85 <_Z41__static_initialization_and_destruction_0ii+0x3b>
  85:	48 8b 05 00 00 00 00 	mov    0x0(%rip),%rax        # 8c <_Z41__static_initialization_and_destruction_0ii+0x42>
  8c:	48 89 c7             	mov    %rax,%rdi
  8f:	e8 00 00 00 00       	callq  94 <_Z41__static_initialization_and_destruction_0ii+0x4a>
  94:	90                   	nop
  95:	c9                   	leaveq 
  96:	c3                   	retq   

0000000000000097 <_GLOBAL__sub_I_stampa>:
  97:	f3 0f 1e fa          	endbr64 
  9b:	55                   	push   %rbp
  9c:	48 89 e5             	mov    %rsp,%rbp
  9f:	be ff ff 00 00       	mov    $0xffff,%esi
  a4:	bf 01 00 00 00       	mov    $0x1,%edi
  a9:	e8 9c ff ff ff       	callq  4a <_Z41__static_initialization_and_destruction_0ii>
  ae:	5d                   	pop    %rbp
  af:	c3                   	retq   
