
a.out:     file format elf64-x86-64


Disassembly of section .init:

0000000000001000 <_init>:
    1000:	f3 0f 1e fa          	endbr64 
    1004:	48 83 ec 08          	sub    $0x8,%rsp
    1008:	48 8b 05 d9 2f 00 00 	mov    0x2fd9(%rip),%rax        # 3fe8 <__gmon_start__>
    100f:	48 85 c0             	test   %rax,%rax
    1012:	74 02                	je     1016 <_init+0x16>
    1014:	ff d0                	callq  *%rax
    1016:	48 83 c4 08          	add    $0x8,%rsp
    101a:	c3                   	retq   

Disassembly of section .plt:

0000000000001020 <.plt>:
    1020:	ff 35 6a 2f 00 00    	pushq  0x2f6a(%rip)        # 3f90 <_GLOBAL_OFFSET_TABLE_+0x8>
    1026:	f2 ff 25 6b 2f 00 00 	bnd jmpq *0x2f6b(%rip)        # 3f98 <_GLOBAL_OFFSET_TABLE_+0x10>
    102d:	0f 1f 00             	nopl   (%rax)
    1030:	f3 0f 1e fa          	endbr64 
    1034:	68 00 00 00 00       	pushq  $0x0
    1039:	f2 e9 e1 ff ff ff    	bnd jmpq 1020 <.plt>
    103f:	90                   	nop
    1040:	f3 0f 1e fa          	endbr64 
    1044:	68 01 00 00 00       	pushq  $0x1
    1049:	f2 e9 d1 ff ff ff    	bnd jmpq 1020 <.plt>
    104f:	90                   	nop
    1050:	f3 0f 1e fa          	endbr64 
    1054:	68 02 00 00 00       	pushq  $0x2
    1059:	f2 e9 c1 ff ff ff    	bnd jmpq 1020 <.plt>
    105f:	90                   	nop
    1060:	f3 0f 1e fa          	endbr64 
    1064:	68 03 00 00 00       	pushq  $0x3
    1069:	f2 e9 b1 ff ff ff    	bnd jmpq 1020 <.plt>
    106f:	90                   	nop
    1070:	f3 0f 1e fa          	endbr64 
    1074:	68 04 00 00 00       	pushq  $0x4
    1079:	f2 e9 a1 ff ff ff    	bnd jmpq 1020 <.plt>
    107f:	90                   	nop

Disassembly of section .plt.got:

0000000000001080 <__cxa_finalize@plt>:
    1080:	f3 0f 1e fa          	endbr64 
    1084:	f2 ff 25 3d 2f 00 00 	bnd jmpq *0x2f3d(%rip)        # 3fc8 <__cxa_finalize@GLIBC_2.2.5>
    108b:	0f 1f 44 00 00       	nopl   0x0(%rax,%rax,1)

Disassembly of section .plt.sec:

0000000000001090 <__cxa_atexit@plt>:
    1090:	f3 0f 1e fa          	endbr64 
    1094:	f2 ff 25 05 2f 00 00 	bnd jmpq *0x2f05(%rip)        # 3fa0 <__cxa_atexit@GLIBC_2.2.5>
    109b:	0f 1f 44 00 00       	nopl   0x0(%rax,%rax,1)

00000000000010a0 <_ZStlsISt11char_traitsIcEERSt13basic_ostreamIcT_ES5_PKc@plt>:
    10a0:	f3 0f 1e fa          	endbr64 
    10a4:	f2 ff 25 fd 2e 00 00 	bnd jmpq *0x2efd(%rip)        # 3fa8 <_ZStlsISt11char_traitsIcEERSt13basic_ostreamIcT_ES5_PKc@GLIBCXX_3.4>
    10ab:	0f 1f 44 00 00       	nopl   0x0(%rax,%rax,1)

00000000000010b0 <_ZNSolsEPFRSoS_E@plt>:
    10b0:	f3 0f 1e fa          	endbr64 
    10b4:	f2 ff 25 f5 2e 00 00 	bnd jmpq *0x2ef5(%rip)        # 3fb0 <_ZNSolsEPFRSoS_E@GLIBCXX_3.4>
    10bb:	0f 1f 44 00 00       	nopl   0x0(%rax,%rax,1)

00000000000010c0 <_ZNSt8ios_base4InitC1Ev@plt>:
    10c0:	f3 0f 1e fa          	endbr64 
    10c4:	f2 ff 25 ed 2e 00 00 	bnd jmpq *0x2eed(%rip)        # 3fb8 <_ZNSt8ios_base4InitC1Ev@GLIBCXX_3.4>
    10cb:	0f 1f 44 00 00       	nopl   0x0(%rax,%rax,1)

00000000000010d0 <_ZNSolsEi@plt>:
    10d0:	f3 0f 1e fa          	endbr64 
    10d4:	f2 ff 25 e5 2e 00 00 	bnd jmpq *0x2ee5(%rip)        # 3fc0 <_ZNSolsEi@GLIBCXX_3.4>
    10db:	0f 1f 44 00 00       	nopl   0x0(%rax,%rax,1)

Disassembly of section .text:

00000000000010e0 <_start>:
    10e0:	f3 0f 1e fa          	endbr64 
    10e4:	31 ed                	xor    %ebp,%ebp
    10e6:	49 89 d1             	mov    %rdx,%r9
    10e9:	5e                   	pop    %rsi
    10ea:	48 89 e2             	mov    %rsp,%rdx
    10ed:	48 83 e4 f0          	and    $0xfffffffffffffff0,%rsp
    10f1:	50                   	push   %rax
    10f2:	54                   	push   %rsp
    10f3:	4c 8d 05 16 02 00 00 	lea    0x216(%rip),%r8        # 1310 <__libc_csu_fini>
    10fa:	48 8d 0d 9f 01 00 00 	lea    0x19f(%rip),%rcx        # 12a0 <__libc_csu_init>
    1101:	48 8d 3d c1 00 00 00 	lea    0xc1(%rip),%rdi        # 11c9 <main>
    1108:	ff 15 d2 2e 00 00    	callq  *0x2ed2(%rip)        # 3fe0 <__libc_start_main@GLIBC_2.2.5>
    110e:	f4                   	hlt    
    110f:	90                   	nop

0000000000001110 <deregister_tm_clones>:
    1110:	48 8d 3d f9 2e 00 00 	lea    0x2ef9(%rip),%rdi        # 4010 <__TMC_END__>
    1117:	48 8d 05 f2 2e 00 00 	lea    0x2ef2(%rip),%rax        # 4010 <__TMC_END__>
    111e:	48 39 f8             	cmp    %rdi,%rax
    1121:	74 15                	je     1138 <deregister_tm_clones+0x28>
    1123:	48 8b 05 ae 2e 00 00 	mov    0x2eae(%rip),%rax        # 3fd8 <_ITM_deregisterTMCloneTable>
    112a:	48 85 c0             	test   %rax,%rax
    112d:	74 09                	je     1138 <deregister_tm_clones+0x28>
    112f:	ff e0                	jmpq   *%rax
    1131:	0f 1f 80 00 00 00 00 	nopl   0x0(%rax)
    1138:	c3                   	retq   
    1139:	0f 1f 80 00 00 00 00 	nopl   0x0(%rax)

0000000000001140 <register_tm_clones>:
    1140:	48 8d 3d c9 2e 00 00 	lea    0x2ec9(%rip),%rdi        # 4010 <__TMC_END__>
    1147:	48 8d 35 c2 2e 00 00 	lea    0x2ec2(%rip),%rsi        # 4010 <__TMC_END__>
    114e:	48 29 fe             	sub    %rdi,%rsi
    1151:	48 89 f0             	mov    %rsi,%rax
    1154:	48 c1 ee 3f          	shr    $0x3f,%rsi
    1158:	48 c1 f8 03          	sar    $0x3,%rax
    115c:	48 01 c6             	add    %rax,%rsi
    115f:	48 d1 fe             	sar    %rsi
    1162:	74 14                	je     1178 <register_tm_clones+0x38>
    1164:	48 8b 05 85 2e 00 00 	mov    0x2e85(%rip),%rax        # 3ff0 <_ITM_registerTMCloneTable>
    116b:	48 85 c0             	test   %rax,%rax
    116e:	74 08                	je     1178 <register_tm_clones+0x38>
    1170:	ff e0                	jmpq   *%rax
    1172:	66 0f 1f 44 00 00    	nopw   0x0(%rax,%rax,1)
    1178:	c3                   	retq   
    1179:	0f 1f 80 00 00 00 00 	nopl   0x0(%rax)

0000000000001180 <__do_global_dtors_aux>:
    1180:	f3 0f 1e fa          	endbr64 
    1184:	80 3d c5 2f 00 00 00 	cmpb   $0x0,0x2fc5(%rip)        # 4150 <completed.8061>
    118b:	75 2b                	jne    11b8 <__do_global_dtors_aux+0x38>
    118d:	55                   	push   %rbp
    118e:	48 83 3d 32 2e 00 00 	cmpq   $0x0,0x2e32(%rip)        # 3fc8 <__cxa_finalize@GLIBC_2.2.5>
    1195:	00 
    1196:	48 89 e5             	mov    %rsp,%rbp
    1199:	74 0c                	je     11a7 <__do_global_dtors_aux+0x27>
    119b:	48 8b 3d 66 2e 00 00 	mov    0x2e66(%rip),%rdi        # 4008 <__dso_handle>
    11a2:	e8 d9 fe ff ff       	callq  1080 <__cxa_finalize@plt>
    11a7:	e8 64 ff ff ff       	callq  1110 <deregister_tm_clones>
    11ac:	c6 05 9d 2f 00 00 01 	movb   $0x1,0x2f9d(%rip)        # 4150 <completed.8061>
    11b3:	5d                   	pop    %rbp
    11b4:	c3                   	retq   
    11b5:	0f 1f 00             	nopl   (%rax)
    11b8:	c3                   	retq   
    11b9:	0f 1f 80 00 00 00 00 	nopl   0x0(%rax)

00000000000011c0 <frame_dummy>:
    11c0:	f3 0f 1e fa          	endbr64 
    11c4:	e9 77 ff ff ff       	jmpq   1140 <register_tm_clones>

00000000000011c9 <main>:
    11c9:	f3 0f 1e fa          	endbr64 
    11cd:	55                   	push   %rbp
    11ce:	48 89 e5             	mov    %rsp,%rbp
    11d1:	bf 0b 00 00 00       	mov    $0xb,%edi
    11d6:	e8 07 00 00 00       	callq  11e2 <_Z6stampai>
    11db:	b8 00 00 00 00       	mov    $0x0,%eax
    11e0:	5d                   	pop    %rbp
    11e1:	c3                   	retq   

00000000000011e2 <_Z6stampai>:
    11e2:	f3 0f 1e fa          	endbr64 
    11e6:	55                   	push   %rbp
    11e7:	48 89 e5             	mov    %rsp,%rbp
    11ea:	48 83 ec 10          	sub    $0x10,%rsp
    11ee:	89 7d fc             	mov    %edi,-0x4(%rbp)
    11f1:	48 8d 35 0d 0e 00 00 	lea    0xe0d(%rip),%rsi        # 2005 <_ZStL19piecewise_construct+0x1>
    11f8:	48 8d 3d 41 2e 00 00 	lea    0x2e41(%rip),%rdi        # 4040 <_ZSt4cout@@GLIBCXX_3.4>
    11ff:	e8 9c fe ff ff       	callq  10a0 <_ZStlsISt11char_traitsIcEERSt13basic_ostreamIcT_ES5_PKc@plt>
    1204:	48 89 c2             	mov    %rax,%rdx
    1207:	8b 45 fc             	mov    -0x4(%rbp),%eax
    120a:	89 c6                	mov    %eax,%esi
    120c:	48 89 d7             	mov    %rdx,%rdi
    120f:	e8 bc fe ff ff       	callq  10d0 <_ZNSolsEi@plt>
    1214:	48 89 c2             	mov    %rax,%rdx
    1217:	48 8b 05 b2 2d 00 00 	mov    0x2db2(%rip),%rax        # 3fd0 <_ZSt4endlIcSt11char_traitsIcEERSt13basic_ostreamIT_T0_ES6_@GLIBCXX_3.4>
    121e:	48 89 c6             	mov    %rax,%rsi
    1221:	48 89 d7             	mov    %rdx,%rdi
    1224:	e8 87 fe ff ff       	callq  10b0 <_ZNSolsEPFRSoS_E@plt>
    1229:	90                   	nop
    122a:	c9                   	leaveq 
    122b:	c3                   	retq   

000000000000122c <_Z41__static_initialization_and_destruction_0ii>:
    122c:	f3 0f 1e fa          	endbr64 
    1230:	55                   	push   %rbp
    1231:	48 89 e5             	mov    %rsp,%rbp
    1234:	48 83 ec 10          	sub    $0x10,%rsp
    1238:	89 7d fc             	mov    %edi,-0x4(%rbp)
    123b:	89 75 f8             	mov    %esi,-0x8(%rbp)
    123e:	83 7d fc 01          	cmpl   $0x1,-0x4(%rbp)
    1242:	75 32                	jne    1276 <_Z41__static_initialization_and_destruction_0ii+0x4a>
    1244:	81 7d f8 ff ff 00 00 	cmpl   $0xffff,-0x8(%rbp)
    124b:	75 29                	jne    1276 <_Z41__static_initialization_and_destruction_0ii+0x4a>
    124d:	48 8d 3d 04 2f 00 00 	lea    0x2f04(%rip),%rdi        # 4158 <_ZStL8__ioinit>
    1254:	e8 67 fe ff ff       	callq  10c0 <_ZNSt8ios_base4InitC1Ev@plt>
    1259:	48 8d 15 a8 2d 00 00 	lea    0x2da8(%rip),%rdx        # 4008 <__dso_handle>
    1260:	48 8d 35 f1 2e 00 00 	lea    0x2ef1(%rip),%rsi        # 4158 <_ZStL8__ioinit>
    1267:	48 8b 05 8a 2d 00 00 	mov    0x2d8a(%rip),%rax        # 3ff8 <_ZNSt8ios_base4InitD1Ev@GLIBCXX_3.4>
    126e:	48 89 c7             	mov    %rax,%rdi
    1271:	e8 1a fe ff ff       	callq  1090 <__cxa_atexit@plt>
    1276:	90                   	nop
    1277:	c9                   	leaveq 
    1278:	c3                   	retq   

0000000000001279 <_GLOBAL__sub_I__Z6stampai>:
    1279:	f3 0f 1e fa          	endbr64 
    127d:	55                   	push   %rbp
    127e:	48 89 e5             	mov    %rsp,%rbp
    1281:	be ff ff 00 00       	mov    $0xffff,%esi
    1286:	bf 01 00 00 00       	mov    $0x1,%edi
    128b:	e8 9c ff ff ff       	callq  122c <_Z41__static_initialization_and_destruction_0ii>
    1290:	5d                   	pop    %rbp
    1291:	c3                   	retq   
    1292:	66 2e 0f 1f 84 00 00 	nopw   %cs:0x0(%rax,%rax,1)
    1299:	00 00 00 
    129c:	0f 1f 40 00          	nopl   0x0(%rax)

00000000000012a0 <__libc_csu_init>:
    12a0:	f3 0f 1e fa          	endbr64 
    12a4:	41 57                	push   %r15
    12a6:	4c 8d 3d c3 2a 00 00 	lea    0x2ac3(%rip),%r15        # 3d70 <__frame_dummy_init_array_entry>
    12ad:	41 56                	push   %r14
    12af:	49 89 d6             	mov    %rdx,%r14
    12b2:	41 55                	push   %r13
    12b4:	49 89 f5             	mov    %rsi,%r13
    12b7:	41 54                	push   %r12
    12b9:	41 89 fc             	mov    %edi,%r12d
    12bc:	55                   	push   %rbp
    12bd:	48 8d 2d bc 2a 00 00 	lea    0x2abc(%rip),%rbp        # 3d80 <__do_global_dtors_aux_fini_array_entry>
    12c4:	53                   	push   %rbx
    12c5:	4c 29 fd             	sub    %r15,%rbp
    12c8:	48 83 ec 08          	sub    $0x8,%rsp
    12cc:	e8 2f fd ff ff       	callq  1000 <_init>
    12d1:	48 c1 fd 03          	sar    $0x3,%rbp
    12d5:	74 1f                	je     12f6 <__libc_csu_init+0x56>
    12d7:	31 db                	xor    %ebx,%ebx
    12d9:	0f 1f 80 00 00 00 00 	nopl   0x0(%rax)
    12e0:	4c 89 f2             	mov    %r14,%rdx
    12e3:	4c 89 ee             	mov    %r13,%rsi
    12e6:	44 89 e7             	mov    %r12d,%edi
    12e9:	41 ff 14 df          	callq  *(%r15,%rbx,8)
    12ed:	48 83 c3 01          	add    $0x1,%rbx
    12f1:	48 39 dd             	cmp    %rbx,%rbp
    12f4:	75 ea                	jne    12e0 <__libc_csu_init+0x40>
    12f6:	48 83 c4 08          	add    $0x8,%rsp
    12fa:	5b                   	pop    %rbx
    12fb:	5d                   	pop    %rbp
    12fc:	41 5c                	pop    %r12
    12fe:	41 5d                	pop    %r13
    1300:	41 5e                	pop    %r14
    1302:	41 5f                	pop    %r15
    1304:	c3                   	retq   
    1305:	66 66 2e 0f 1f 84 00 	data16 nopw %cs:0x0(%rax,%rax,1)
    130c:	00 00 00 00 

0000000000001310 <__libc_csu_fini>:
    1310:	f3 0f 1e fa          	endbr64 
    1314:	c3                   	retq   

Disassembly of section .fini:

0000000000001318 <_fini>:
    1318:	f3 0f 1e fa          	endbr64 
    131c:	48 83 ec 08          	sub    $0x8,%rsp
    1320:	48 83 c4 08          	add    $0x8,%rsp
    1324:	c3                   	retq   
